target datalayout = "e-m:e-p270:32:32-p271:32:32-p272:64:64-i64:64-i128:128-f80:128-n8:16:32:64-S128"
target triple = "x86_64-pc-linux-gnu"

; Function Attrs: mustprogress null_pointer_is_valid sspstrong uwtable
define void @_ZN15WiresharkDialog18captureFileClosingEv(ptr noundef align 8 dereferenceable_or_null(141) %0) unnamed_addr #0 align 2 {
  %2 = alloca ptr, align 8
  store ptr %0, ptr %2, align 8
  %3 = load ptr, ptr %2, align 8
  %4 = load ptr, ptr %3, align 8
  %5 = getelementptr inbounds ptr, ptr %4, i64 59
  %6 = load ptr, ptr %5, align 8
  call void %6(ptr noundef align 8 dereferenceable_or_null(141) %3)
  %7 = load ptr, ptr %3, align 8
  %8 = getelementptr inbounds ptr, ptr %7, i64 58
  %9 = load ptr, ptr %8, align 8
  call void %9(ptr noundef align 8 dereferenceable_or_null(141) %3)
  ret void
}