; Function Attrs: mustprogress null_pointer_is_valid sspstrong uwtable
define void @_ZN15WiresharkDialog18captureFileClosingEv(ptr noundef align 8 dereferenceable_or_null(141) %0) unnamed_addr #0 align 2 {
  %2 = load ptr, ptr %0, align 8
  %3 = getelementptr inbounds nuw i8, ptr %2, i64 472
  %4 = load ptr, ptr %3, align 8
  tail call void %4(ptr noundef align 8 dereferenceable_or_null(141) %0)
  %5 = load ptr, ptr %0, align 8
  %6 = getelementptr inbounds nuw i8, ptr %5, i64 464
  %7 = load ptr, ptr %6, align 8
  tail call void %7(ptr noundef align 8 dereferenceable_or_null(141) %0)
  ret void
}